target datalayout = "e-m:e-p270:32:32-p271:32:32-p272:64:64-i64:64-i128:128-f80:128-n8:16:32:64-S128"
target triple = "x86_64-pc-linux-gnu"

%struct._uat_key_record_t = type { ptr, i8, ptr }
%struct.key_record_t = type { i32, ptr, [16 x i8] }

@uat_key_records = internal global ptr null, align 8
@num_uat_key_records = internal global i32 0, align 4
@zbee_pc_keyring = internal global ptr null, align 8

; Function Attrs: nounwind uwtable
define internal void @uat_key_record_post_update() #0 {
  %1 = alloca i32, align 4
  %2 = alloca %struct.key_record_t, align 8
  %3 = alloca [16 x i8], align 16
  %4 = load ptr, ptr @zbee_pc_keyring, align 8
  %5 = icmp ne ptr %4, null
  br i1 %5, label %6, label %8

6:                                                ; preds = %0
  %7 = load ptr, ptr @zbee_pc_keyring, align 8
  call void @g_slist_free_full(ptr noundef %7, ptr noundef @zbee_free_key_record)
  store ptr null, ptr @zbee_pc_keyring, align 8
  br label %8

8:                                                ; preds = %6, %0
  store i32 0, ptr %1, align 4
  br label %9

9:                                                ; preds = %52, %8
  %10 = load ptr, ptr @uat_key_records, align 8
  %11 = icmp ne ptr %10, null
  br i1 %11, label %12, label %16

12:                                               ; preds = %9
  %13 = load i32, ptr %1, align 4
  %14 = load i32, ptr @num_uat_key_records, align 4
  %15 = icmp ult i32 %13, %14
  br label %16

16:                                               ; preds = %12, %9
  %17 = phi i1 [ false, %9 ], [ %15, %12 ]
  br i1 %17, label %18, label %55

18:                                               ; preds = %16
  %19 = load ptr, ptr @uat_key_records, align 8
  %20 = load i32, ptr %1, align 4
  %21 = zext i32 %20 to i64
  %22 = getelementptr %struct._uat_key_record_t, ptr %19, i64 %21
  %23 = getelementptr inbounds %struct._uat_key_record_t, ptr %22, i32 0, i32 0
  %24 = load ptr, ptr %23, align 8
  %25 = getelementptr inbounds [16 x i8], ptr %3, i64 0, i64 0
  %26 = load ptr, ptr @uat_key_records, align 8
  %27 = load i32, ptr %1, align 4
  %28 = zext i32 %27 to i64
  %29 = getelementptr %struct._uat_key_record_t, ptr %26, i64 %28
  %30 = getelementptr inbounds %struct._uat_key_record_t, ptr %29, i32 0, i32 1
  %31 = load i8, ptr %30, align 8
  %32 = zext i8 %31 to i32
  %33 = call i32 @zbee_security_parse_key(ptr noundef %24, ptr noundef %25, i32 noundef %32)
  %34 = icmp ne i32 %33, 0
  br i1 %34, label %35, label %51

35:                                               ; preds = %18
  %36 = getelementptr inbounds %struct.key_record_t, ptr %2, i32 0, i32 0
  store i32 0, ptr %36, align 8
  %37 = load ptr, ptr @uat_key_records, align 8
  %38 = load i32, ptr %1, align 4
  %39 = zext i32 %38 to i64
  %40 = getelementptr %struct._uat_key_record_t, ptr %37, i64 %39
  %41 = getelementptr inbounds %struct._uat_key_record_t, ptr %40, i32 0, i32 2
  %42 = load ptr, ptr %41, align 8
  %43 = call noalias ptr @g_strdup(ptr noundef %42)
  %44 = getelementptr inbounds %struct.key_record_t, ptr %2, i32 0, i32 1
  store ptr %43, ptr %44, align 8
  %45 = getelementptr inbounds %struct.key_record_t, ptr %2, i32 0, i32 2
  %46 = getelementptr inbounds [16 x i8], ptr %45, i64 0, i64 0
  %47 = getelementptr inbounds [16 x i8], ptr %3, i64 0, i64 0
  call void @llvm.memcpy.p0.p0.i64(ptr align 8 %46, ptr align 16 %47, i64 16, i1 false)
  %48 = load ptr, ptr @zbee_pc_keyring, align 8
  %49 = call ptr @g_memdup2(ptr noundef %2, i64 noundef 32) #9
  %50 = call ptr @g_slist_prepend(ptr noundef %48, ptr noundef %49)
  store ptr %50, ptr @zbee_pc_keyring, align 8
  br label %51

51:                                               ; preds = %35, %18
  br label %52

52:                                               ; preds = %51
  %53 = load i32, ptr %1, align 4
  %54 = add i32 %53, 1
  store i32 %54, ptr %1, align 4
  br label %9, !llvm.loop !7

55:                                               ; preds = %16
  ret void
}