; Function Attrs: nounwind uwtable
define internal void @uat_key_record_post_update() #0 {
  %1 = alloca %struct.key_record_t, align 8
  %2 = alloca [16 x i8], align 16
  %3 = load ptr, ptr @zbee_pc_keyring, align 8
  %.not = icmp eq ptr %3, null
  br i1 %.not, label %5, label %4

4:                                                ; preds = %0
  tail call void @g_slist_free_full(ptr noundef nonnull %3, ptr noundef nonnull @zbee_free_key_record) #11
  store ptr null, ptr @zbee_pc_keyring, align 8
  br label %5

5:                                                ; preds = %4, %0
  %6 = load ptr, ptr @uat_key_records, align 8
  %7 = icmp ne ptr %6, null
  %8 = load i32, ptr @num_uat_key_records, align 4
  %9 = icmp ne i32 %8, 0
  %10 = select i1 %7, i1 %9, i1 false
  br i1 %10, label %.lr.ph, label %._crit_edge

.lr.ph:                                           ; preds = %5
  %11 = getelementptr inbounds nuw i8, ptr %1, i64 8
  %12 = getelementptr inbounds nuw i8, ptr %1, i64 16
  br label %13

13:                                               ; preds = %.lr.ph, %29
  %14 = phi i32 [ %8, %.lr.ph ], [ %30, %29 ]
  %15 = phi ptr [ %6, %.lr.ph ], [ %31, %29 ]
  %indvars.iv = phi i64 [ 0, %.lr.ph ], [ %indvars.iv.next, %29 ]
  %16 = getelementptr %struct._uat_key_record_t, ptr %15, i64 %indvars.iv
  %17 = load ptr, ptr %16, align 8
  %18 = getelementptr inbounds nuw i8, ptr %16, i64 8
  %19 = load i8, ptr %18, align 8
  %20 = zext i8 %19 to i32
  %21 = call fastcc i32 @zbee_security_parse_key(ptr noundef %17, ptr noundef %2, i32 noundef %20)
  %.not7 = icmp eq i32 %21, 0
  br i1 %.not7, label %29, label %22

22:                                               ; preds = %13
  store i32 0, ptr %1, align 8
  %23 = getelementptr %struct._uat_key_record_t, ptr %15, i64 %indvars.iv, i32 2
  %24 = load ptr, ptr %23, align 8
  %25 = call noalias ptr @g_strdup(ptr noundef %24) #11
  store ptr %25, ptr %11, align 8
  call void @llvm.memcpy.p0.p0.i64(ptr noundef nonnull align 8 dereferenceable(16) %12, ptr noundef nonnull align 16 dereferenceable(16) %2, i64 16, i1 false)
  %26 = load ptr, ptr @zbee_pc_keyring, align 8
  %27 = call dereferenceable_or_null(32) ptr @g_memdup2(ptr noundef nonnull %1, i64 noundef 32) #13
  %28 = call ptr @g_slist_prepend(ptr noundef %26, ptr noundef %27) #11
  store ptr %28, ptr @zbee_pc_keyring, align 8
  %.pre = load ptr, ptr @uat_key_records, align 8
  %.pre10 = load i32, ptr @num_uat_key_records, align 4
  br label %29

29:                                               ; preds = %13, %22
  %30 = phi i32 [ %14, %13 ], [ %.pre10, %22 ]
  %31 = phi ptr [ %15, %13 ], [ %.pre, %22 ]
  %indvars.iv.next = add nuw nsw i64 %indvars.iv, 1
  %32 = icmp ne ptr %31, null
  %33 = zext i32 %30 to i64
  %34 = icmp samesign ult i64 %indvars.iv.next, %33
  %35 = select i1 %32, i1 %34, i1 false
  br i1 %35, label %13, label %._crit_edge, !llvm.loop !7

._crit_edge:                                      ; preds = %29, %5
  ret void
}